; Function Attrs: nounwind uwtable
define dso_local range(i64 0, 281474976710657) i64 @hfieldGetExpireTime(ptr noundef %0) local_unnamed_addr #1 {
  %2 = getelementptr i8, ptr %0, i64 -1
  %.val.i = load i8, ptr %2, align 1, !tbaa !5
  %3 = and i8 %.val.i, 4
  %.not.i = icmp eq i8 %3, 0
  br i1 %.not.i, label %hfieldIsExpireAttached.exit.thread, label %hfieldIsExpireAttached.exit

hfieldIsExpireAttached.exit:                      ; preds = %1
  %4 = tail call ptr @mstrFlagsRef(ptr noundef nonnull %0) #16
  %5 = load i16, ptr %4, align 2, !tbaa !8
  %6 = and i16 %5, 1
  %.not = icmp eq i16 %6, 0
  br i1 %.not, label %hfieldIsExpireAttached.exit.thread, label %7

7:                                                ; preds = %hfieldIsExpireAttached.exit
  %8 = tail call ptr @mstrMetaRef(ptr noundef nonnull %0, ptr noundef nonnull @mstrFieldKind, i32 noundef 0) #16
  %9 = getelementptr inbounds nuw i8, ptr %8, i64 6
  %10 = load i16, ptr %9, align 2
  %11 = and i16 %10, 256
  %.not4 = icmp eq i16 %11, 0
  br i1 %.not4, label %12, label %hfieldIsExpireAttached.exit.thread

12:                                               ; preds = %7
  %.val = load i32, ptr %8, align 8, !tbaa !69
  %13 = getelementptr i8, ptr %8, i64 4
  %.val5 = load i16, ptr %13, align 4, !tbaa !70
  %14 = zext i16 %.val5 to i64
  %15 = shl nuw nsw i64 %14, 32
  %16 = zext i32 %.val to i64
  %17 = or disjoint i64 %15, %16
  br label %hfieldIsExpireAttached.exit.thread

hfieldIsExpireAttached.exit.thread:               ; preds = %1, %12, %7, %hfieldIsExpireAttached.exit
  %.0 = phi i64 [ 281474976710656, %hfieldIsExpireAttached.exit ], [ %17, %12 ], [ 281474976710656, %7 ], [ 281474976710656, %1 ]
  ret i64 %.0
}